   1               		.file	"queue.c"
   2               	__SREG__ = 0x3f
   3               	__SP_H__ = 0x3e
   4               	__SP_L__ = 0x3d
   5               	__CCP__  = 0x34
   6               	__tmp_reg__ = 0
   7               	__zero_reg__ = 1
   8               		.global __do_copy_data
   9               		.global __do_clear_bss
  17               	.Ltext0:
  18               	.global	uxQueueMessagesWaiting
  20               	uxQueueMessagesWaiting:
  21               	.LFB7:
  22               	.LM1:
  23               	.LVL0:
  24               	/* prologue: function */
  25               	/* frame size = 0 */
  26 0000 FC01      		movw r30,r24
  27               	.LM2:
  28               	/* #APP */
  29               	 ;  1022 "../../Source/queue.c" 1
  30 0002 0FB6      		in		__tmp_reg__, __SREG__
  31               	 ;  0 "" 2
  32               	 ;  1022 "../../Source/queue.c" 1
  33 0004 F894      		cli
  34               	 ;  0 "" 2
  35               	 ;  1022 "../../Source/queue.c" 1
  36 0006 0F92      		push	__tmp_reg__
  37               	 ;  0 "" 2
  38               	.LM3:
  39               	/* #NOAPP */
  40 0008 828D      		ldd r24,Z+26
  41               	.LVL1:
  42               	.LM4:
  43               	/* #APP */
  44               	 ;  1024 "../../Source/queue.c" 1
  45 000a 0F90      		pop		__tmp_reg__
  46               	 ;  0 "" 2
  47               	 ;  1024 "../../Source/queue.c" 1
  48 000c 0FBE      		out		__SREG__, __tmp_reg__
  49               	 ;  0 "" 2
  50               	.LVL2:
  51               	/* epilogue start */
  52               	.LM5:
  53               	/* #NOAPP */
  54 000e 0895      		ret
  55               	.LFE7:
  57               	.global	uxQueueMessagesWaitingFromISR
  59               	uxQueueMessagesWaitingFromISR:
  60               	.LFB8:
  61               	.LM6:
  62               	.LVL3:
  63               	/* prologue: function */
  64               	/* frame size = 0 */
  65 0010 FC01      		movw r30,r24
  66               	.LM7:
  67 0012 828D      		ldd r24,Z+26
  68               	.LVL4:
  69               	.LVL5:
  70               	/* epilogue start */
  71               	.LM8:
  72 0014 0895      		ret
  73               	.LFE8:
  75               	.global	xQueueIsQueueEmptyFromISR
  77               	xQueueIsQueueEmptyFromISR:
  78               	.LFB14:
  79               	.LM9:
  80               	.LVL6:
  81               	/* prologue: function */
  82               	/* frame size = 0 */
  83 0016 FC01      		movw r30,r24
  84               	.LM10:
  85 0018 828D      		ldd r24,Z+26
  86               	.LVL7:
  87 001a 90E0      		ldi r25,lo8(0)
  88 001c 8823      		tst r24
  89 001e 01F4      		brne .L6
  90 0020 91E0      		ldi r25,lo8(1)
  91               	.L6:
  92               	.LM11:
  93 0022 892F      		mov r24,r25
  94               	/* epilogue start */
  95 0024 0895      		ret
  96               	.LFE14:
  98               	.global	xQueueIsQueueFullFromISR
 100               	xQueueIsQueueFullFromISR:
 101               	.LFB16:
 102               	.LM12:
 103               	.LVL8:
 104               	/* prologue: function */
 105               	/* frame size = 0 */
 106 0026 FC01      		movw r30,r24
 107               	.LM13:
 108 0028 928D      		ldd r25,Z+26
 109 002a 20E0      		ldi r18,lo8(0)
 110 002c 838D      		ldd r24,Z+27
 111               	.LVL9:
 112 002e 9817      		cp r25,r24
 113 0030 01F4      		brne .L9
 114 0032 21E0      		ldi r18,lo8(1)
 115               	.L9:
 116               	.LM14:
 117 0034 822F      		mov r24,r18
 118               	/* epilogue start */
 119 0036 0895      		ret
 120               	.LFE16:
 123               	prvCopyDataToQueue:
 124               	.LFB10:
 125               	.LM15:
 126               	.LVL10:
 127 0038 CF93      		push r28
 128 003a DF93      		push r29
 129               	/* prologue: function */
 130               	/* frame size = 0 */
 131 003c EC01      		movw r28,r24
 132 003e 842F      		mov r24,r20
 133               	.LVL11:
 134               	.LM16:
 135 0040 4C8D      		ldd r20,Y+28
 136               	.LVL12:
 137 0042 4423      		tst r20
 138 0044 01F0      		breq .L12
 139               	.LM17:
 140 0046 8823      		tst r24
 141 0048 01F4      		brne .L13
 142               	.LM18:
 143 004a 8C81      		ldd r24,Y+4
 144               	.LVL13:
 145 004c 9D81      		ldd r25,Y+5
 146 004e 50E0      		ldi r21,lo8(0)
 147 0050 0E94 0000 		call memcpy
 148               	.LVL14:
 149               	.LM19:
 150 0054 8C8D      		ldd r24,Y+28
 151 0056 2C81      		ldd r18,Y+4
 152 0058 3D81      		ldd r19,Y+5
 153 005a 280F      		add r18,r24
 154 005c 311D      		adc r19,__zero_reg__
 155 005e 3D83      		std Y+5,r19
 156 0060 2C83      		std Y+4,r18
 157               	.LM20:
 158 0062 8A81      		ldd r24,Y+2
 159 0064 9B81      		ldd r25,Y+3
 160 0066 2817      		cp r18,r24
 161 0068 3907      		cpc r19,r25
 162 006a 00F0      		brlo .L12
 163               	.LM21:
 164 006c 8881      		ld r24,Y
 165 006e 9981      		ldd r25,Y+1
 166 0070 9D83      		std Y+5,r25
 167 0072 8C83      		std Y+4,r24
 168 0074 00C0      		rjmp .L12
 169               	.LVL15:
 170               	.L13:
 171               	.LM22:
 172 0076 8E81      		ldd r24,Y+6
 173               	.LVL16:
 174 0078 9F81      		ldd r25,Y+7
 175 007a 50E0      		ldi r21,lo8(0)
 176 007c 0E94 0000 		call memcpy
 177               	.LVL17:
 178               	.LM23:
 179 0080 8C8D      		ldd r24,Y+28
 180 0082 90E0      		ldi r25,lo8(0)
 181 0084 4427      		clr r20
 182 0086 5527      		clr r21
 183 0088 481B      		sub r20,r24
 184 008a 590B      		sbc r21,r25
 185 008c 8E81      		ldd r24,Y+6
 186 008e 9F81      		ldd r25,Y+7
 187 0090 840F      		add r24,r20
 188 0092 951F      		adc r25,r21
 189 0094 9F83      		std Y+7,r25
 190 0096 8E83      		std Y+6,r24
 191               	.LM24:
 192 0098 2881      		ld r18,Y
 193 009a 3981      		ldd r19,Y+1
 194 009c 8217      		cp r24,r18
 195 009e 9307      		cpc r25,r19
 196 00a0 00F4      		brsh .L12
 197               	.LM25:
 198 00a2 8A81      		ldd r24,Y+2
 199 00a4 9B81      		ldd r25,Y+3
 200 00a6 840F      		add r24,r20
 201 00a8 951F      		adc r25,r21
 202 00aa 9F83      		std Y+7,r25
 203 00ac 8E83      		std Y+6,r24
 204               	.LVL18:
 205               	.L12:
 206               	.LM26:
 207 00ae 8A8D      		ldd r24,Y+26
 208               	.LVL19:
 209 00b0 8F5F      		subi r24,lo8(-(1))
 210 00b2 8A8F      		std Y+26,r24
 211               	/* epilogue start */
 212               	.LM27:
 213 00b4 DF91      		pop r29
 214 00b6 CF91      		pop r28
 215               	.LVL20:
 216 00b8 0895      		ret
 217               	.LFE10:
 219               	.global	xQueueCRReceiveFromISR
 221               	xQueueCRReceiveFromISR:
 222               	.LFB20:
 223               	.LM28:
 224               	.LVL21:
 225 00ba 0F93      		push r16
 226 00bc 1F93      		push r17
 227 00be CF93      		push r28
 228 00c0 DF93      		push r29
 229               	/* prologue: function */
 230               	/* frame size = 0 */
 231 00c2 EC01      		movw r28,r24
 232 00c4 FB01      		movw r30,r22
 233               	.LVL22:
 234 00c6 8A01      		movw r16,r20
 235               	.LM29:
 236 00c8 8A8D      		ldd r24,Y+26
 237               	.LVL23:
 238 00ca 8823      		tst r24
 239 00cc 01F0      		breq .L19
 240               	.LVL24:
 241               	.LM30:
 242 00ce 8C8D      		ldd r24,Y+28
 243 00d0 2E81      		ldd r18,Y+6
 244 00d2 3F81      		ldd r19,Y+7
 245 00d4 280F      		add r18,r24
 246 00d6 311D      		adc r19,__zero_reg__
 247 00d8 3F83      		std Y+7,r19
 248 00da 2E83      		std Y+6,r18
 249               	.LM31:
 250 00dc 8A81      		ldd r24,Y+2
 251 00de 9B81      		ldd r25,Y+3
 252 00e0 2817      		cp r18,r24
 253 00e2 3907      		cpc r19,r25
 254 00e4 00F0      		brlo .L20
 255               	.LM32:
 256 00e6 8881      		ld r24,Y
 257 00e8 9981      		ldd r25,Y+1
 258 00ea 9F83      		std Y+7,r25
 259 00ec 8E83      		std Y+6,r24
 260               	.L20:
 261               	.LM33:
 262 00ee 8A8D      		ldd r24,Y+26
 263 00f0 8150      		subi r24,lo8(-(-1))
 264 00f2 8A8F      		std Y+26,r24
 265               	.LM34:
 266 00f4 4C8D      		ldd r20,Y+28
 267 00f6 6E81      		ldd r22,Y+6
 268 00f8 7F81      		ldd r23,Y+7
 269 00fa CF01      		movw r24,r30
 270 00fc 50E0      		ldi r21,lo8(0)
 271 00fe 0E94 0000 		call memcpy
 272               	.LM35:
 273 0102 F801      		movw r30,r16
 274 0104 8081      		ld r24,Z
 275 0106 8823      		tst r24
 276 0108 01F4      		brne .L22
 277               	.LM36:
 278 010a 8885      		ldd r24,Y+8
 279 010c 8823      		tst r24
 280 010e 01F0      		breq .L22
 281               	.LM37:
 282 0110 CE01      		movw r24,r28
 283 0112 0896      		adiw r24,8
 284 0114 0E94 0000 		call xCoRoutineRemoveFromEventList
 285 0118 8823      		tst r24
 286 011a 01F0      		breq .L22
 287               	.LM38:
 288 011c 81E0      		ldi r24,lo8(1)
 289 011e F801      		movw r30,r16
 290 0120 8083      		st Z,r24
 291 0122 00C0      		rjmp .L19
 292               	.L22:
 293 0124 81E0      		ldi r24,lo8(1)
 294               	.LVL25:
 295               	.L19:
 296               	.LVL26:
 297               	/* epilogue start */
 298               	.LM39:
 299 0126 DF91      		pop r29
 300 0128 CF91      		pop r28
 301               	.LVL27:
 302 012a 1F91      		pop r17
 303 012c 0F91      		pop r16
 304               	.LVL28:
 305 012e 0895      		ret
 306               	.LFE20:
 308               	.global	xQueueCRSendFromISR
 310               	xQueueCRSendFromISR:
 311               	.LFB19:
 312               	.LM40:
 313               	.LVL29:
 314 0130 1F93      		push r17
 315 0132 CF93      		push r28
 316 0134 DF93      		push r29
 317               	/* prologue: function */
 318               	/* frame size = 0 */
 319 0136 EC01      		movw r28,r24
 320 0138 142F      		mov r17,r20
 321               	.LM41:
 322 013a 9A8D      		ldd r25,Y+26
 323 013c 8B8D      		ldd r24,Y+27
 324               	.LVL30:
 325 013e 9817      		cp r25,r24
 326 0140 00F4      		brsh .L25
 327               	.LVL31:
 328               	.LM42:
 329 0142 CE01      		movw r24,r28
 330 0144 40E0      		ldi r20,lo8(0)
 331 0146 0E94 0000 		call prvCopyDataToQueue
 332               	.LVL32:
 333               	.LM43:
 334 014a 1123      		tst r17
 335 014c 01F4      		brne .L25
 336               	.LM44:
 337 014e 8989      		ldd r24,Y+17
 338 0150 8823      		tst r24
 339 0152 01F0      		breq .L25
 340               	.LM45:
 341 0154 CE01      		movw r24,r28
 342 0156 4196      		adiw r24,17
 343 0158 0E94 0000 		call xCoRoutineRemoveFromEventList
 344 015c 482F      		mov r20,r24
 345 015e 8111      		cpse r24,__zero_reg__
 346 0160 41E0      		ldi r20,lo8(1)
 347               	.L26:
 348 0162 142F      		mov r17,r20
 349               	.LVL33:
 350               	.L25:
 351               	.LM46:
 352 0164 812F      		mov r24,r17
 353               	/* epilogue start */
 354 0166 DF91      		pop r29
 355 0168 CF91      		pop r28
 356               	.LVL34:
 357 016a 1F91      		pop r17
 358               	.LVL35:
 359 016c 0895      		ret
 360               	.LFE19:
 362               	.global	xQueueCRReceive
 364               	xQueueCRReceive:
 365               	.LFB18:
 366               	.LM47:
 367               	.LVL36:
 368 016e CF93      		push r28
 369 0170 DF93      		push r29
 370               	/* prologue: function */
 371               	/* frame size = 0 */
 372 0172 EC01      		movw r28,r24
 373 0174 FB01      		movw r30,r22
 374               	.LVL37:
 375               	.LM48:
 376               	/* #APP */
 377               	 ;  1285 "../../Source/queue.c" 1
 378 0176 F894      		cli
 379               	 ;  0 "" 2
 380               	.LM49:
 381               	/* #NOAPP */
 382 0178 8A8D      		ldd r24,Y+26
 383               	.LVL38:
 384 017a 8823      		tst r24
 385 017c 01F4      		brne .L29
 386               	.LM50:
 387 017e 4115      		cp r20,__zero_reg__
 388 0180 5105      		cpc r21,__zero_reg__
 389 0182 01F0      		breq .L30
 390               	.LM51:
 391 0184 6196      		adiw r28,17
 392 0186 CA01      		movw r24,r20
 393 0188 BE01      		movw r22,r28
 394 018a 0E94 0000 		call vCoRoutineAddToDelayedList
 395               	.LVL39:
 396               	.LM52:
 397               	/* #APP */
 398               	 ;  1296 "../../Source/queue.c" 1
 399 018e 7894      		sei
 400               	 ;  0 "" 2
 401               	/* #NOAPP */
 402 0190 8CEF      		ldi r24,lo8(-4)
 403               	.LVL40:
 404 0192 00C0      		rjmp .L31
 405               	.LVL41:
 406               	.L30:
 407               	.LM53:
 408               	/* #APP */
 409               	 ;  1301 "../../Source/queue.c" 1
 410 0194 7894      		sei
 411               	 ;  0 "" 2
 412               	/* #NOAPP */
 413 0196 80E0      		ldi r24,lo8(0)
 414               	.LVL42:
 415 0198 00C0      		rjmp .L31
 416               	.LVL43:
 417               	.L29:
 418               	.LM54:
 419               	/* #APP */
 420               	 ;  1306 "../../Source/queue.c" 1
 421 019a 7894      		sei
 422               	 ;  0 "" 2
 423               	.LM55:
 424               	 ;  1308 "../../Source/queue.c" 1
 425 019c 0000      		nop
 426               	 ;  0 "" 2
 427               	.LM56:
 428               	 ;  1310 "../../Source/queue.c" 1
 429 019e F894      		cli
 430               	 ;  0 "" 2
 431               	.LM57:
 432               	/* #NOAPP */
 433 01a0 8A8D      		ldd r24,Y+26
 434 01a2 8823      		tst r24
 435 01a4 01F0      		breq .L33
 436               	.LM58:
 437 01a6 8C8D      		ldd r24,Y+28
 438 01a8 2E81      		ldd r18,Y+6
 439 01aa 3F81      		ldd r19,Y+7
 440 01ac 280F      		add r18,r24
 441 01ae 311D      		adc r19,__zero_reg__
 442 01b0 3F83      		std Y+7,r19
 443 01b2 2E83      		std Y+6,r18
 444               	.LM59:
 445 01b4 8A81      		ldd r24,Y+2
 446 01b6 9B81      		ldd r25,Y+3
 447 01b8 2817      		cp r18,r24
 448 01ba 3907      		cpc r19,r25
 449 01bc 00F0      		brlo .L34
 450               	.LM60:
 451 01be 8881      		ld r24,Y
 452 01c0 9981      		ldd r25,Y+1
 453 01c2 9F83      		std Y+7,r25
 454 01c4 8E83      		std Y+6,r24
 455               	.L34:
 456               	.LM61:
 457 01c6 8A8D      		ldd r24,Y+26
 458 01c8 8150      		subi r24,lo8(-(-1))
 459 01ca 8A8F      		std Y+26,r24
 460               	.LM62:
 461 01cc 4C8D      		ldd r20,Y+28
 462               	.LVL44:
 463 01ce 6E81      		ldd r22,Y+6
 464 01d0 7F81      		ldd r23,Y+7
 465 01d2 CF01      		movw r24,r30
 466 01d4 50E0      		ldi r21,lo8(0)
 467 01d6 0E94 0000 		call memcpy
 468               	.LM63:
 469 01da 8885      		ldd r24,Y+8
 470 01dc 8823      		tst r24
 471 01de 01F0      		breq .L36
 472               	.LM64:
 473 01e0 CE01      		movw r24,r28
 474 01e2 0896      		adiw r24,8
 475 01e4 0E94 0000 		call xCoRoutineRemoveFromEventList
 476 01e8 8823      		tst r24
 477 01ea 01F0      		breq .L36
 478 01ec 8BEF      		ldi r24,lo8(-5)
 479               	.LVL45:
 480 01ee 00C0      		rjmp .L33
 481               	.LVL46:
 482               	.L36:
 483 01f0 81E0      		ldi r24,lo8(1)
 484               	.LVL47:
 485               	.L33:
 486               	.LM65:
 487               	/* #APP */
 488               	 ;  1343 "../../Source/queue.c" 1
 489 01f2 7894      		sei
 490               	 ;  0 "" 2
 491               	/* #NOAPP */
 492               	.L31:
 493               	.LVL48:
 494               	/* epilogue start */
 495               	.LM66:
 496 01f4 DF91      		pop r29
 497 01f6 CF91      		pop r28
 498               	.LVL49:
 499 01f8 0895      		ret
 500               	.LFE18:
 502               	.global	xQueueCRSend
 504               	xQueueCRSend:
 505               	.LFB17:
 506               	.LM67:
 507               	.LVL50:
 508 01fa CF93      		push r28
 509 01fc DF93      		push r29
 510               	/* prologue: function */
 511               	/* frame size = 0 */
 512 01fe EC01      		movw r28,r24
 513               	.LM68:
 514               	/* #APP */
 515               	 ;  1217 "../../Source/queue.c" 1
 516 0200 F894      		cli
 517               	 ;  0 "" 2
 518               	/* #NOAPP */
 519               	.LBB12:
 520               	.LBB13:
 521               	.LM69:
 522               	/* #APP */
 523               	 ;  1191 "../../Source/queue.c" 1
 524 0202 0FB6      		in		__tmp_reg__, __SREG__
 525               	 ;  0 "" 2
 526               	 ;  1191 "../../Source/queue.c" 1
 527 0204 F894      		cli
 528               	 ;  0 "" 2
 529               	 ;  1191 "../../Source/queue.c" 1
 530 0206 0F92      		push	__tmp_reg__
 531               	 ;  0 "" 2
 532               	.LM70:
 533               	/* #NOAPP */
 534 0208 8A8D      		ldd r24,Y+26
 535               	.LVL51:
 536 020a 9B8D      		ldd r25,Y+27
 537               	.LM71:
 538               	/* #APP */
 539               	 ;  1193 "../../Source/queue.c" 1
 540 020c 0F90      		pop		__tmp_reg__
 541               	 ;  0 "" 2
 542               	 ;  1193 "../../Source/queue.c" 1
 543 020e 0FBE      		out		__SREG__, __tmp_reg__
 544               	 ;  0 "" 2
 545               	/* #NOAPP */
 546               	.LBE13:
 547               	.LBE12:
 548               	.LM72:
 549 0210 8917      		cp r24,r25
 550 0212 01F4      		brne .L39
 551               	.LM73:
 552 0214 4115      		cp r20,__zero_reg__
 553 0216 5105      		cpc r21,__zero_reg__
 554 0218 01F0      		breq .L40
 555               	.LM74:
 556 021a 2896      		adiw r28,8
 557 021c CA01      		movw r24,r20
 558 021e BE01      		movw r22,r28
 559               	.LVL52:
 560 0220 0E94 0000 		call vCoRoutineAddToDelayedList
 561               	.LVL53:
 562               	.LM75:
 563               	/* #APP */
 564               	 ;  1228 "../../Source/queue.c" 1
 565 0224 7894      		sei
 566               	 ;  0 "" 2
 567               	/* #NOAPP */
 568 0226 8CEF      		ldi r24,lo8(-4)
 569               	.LVL54:
 570 0228 00C0      		rjmp .L41
 571               	.LVL55:
 572               	.L40:
 573               	.LM76:
 574               	/* #APP */
 575               	 ;  1233 "../../Source/queue.c" 1
 576 022a 7894      		sei
 577               	 ;  0 "" 2
 578               	/* #NOAPP */
 579 022c 80E0      		ldi r24,lo8(0)
 580               	.LVL56:
 581 022e 00C0      		rjmp .L41
 582               	.LVL57:
 583               	.L39:
 584               	.LM77:
 585               	/* #APP */
 586               	 ;  1238 "../../Source/queue.c" 1
 587 0230 7894      		sei
 588               	 ;  0 "" 2
 589               	.LM78:
 590               	 ;  1240 "../../Source/queue.c" 1
 591 0232 0000      		nop
 592               	 ;  0 "" 2
 593               	.LM79:
 594               	 ;  1242 "../../Source/queue.c" 1
 595 0234 F894      		cli
 596               	 ;  0 "" 2
 597               	.LM80:
 598               	/* #NOAPP */
 599 0236 8A8D      		ldd r24,Y+26
 600 0238 8917      		cp r24,r25
 601 023a 00F0      		brlo .L42
 602 023c 80E0      		ldi r24,lo8(0)
 603               	.LVL58:
 604 023e 00C0      		rjmp .L43
 605               	.LVL59:
 606               	.L42:
 607               	.LM81:
 608 0240 CE01      		movw r24,r28
 609 0242 40E0      		ldi r20,lo8(0)
 610               	.LVL60:
 611 0244 0E94 0000 		call prvCopyDataToQueue
 612               	.LVL61:
 613               	.LM82:
 614 0248 8989      		ldd r24,Y+17
 615 024a 8823      		tst r24
 616 024c 01F0      		breq .L44
 617               	.LM83:
 618 024e CE01      		movw r24,r28
 619 0250 4196      		adiw r24,17
 620 0252 0E94 0000 		call xCoRoutineRemoveFromEventList
 621 0256 8823      		tst r24
 622 0258 01F0      		breq .L44
 623 025a 8BEF      		ldi r24,lo8(-5)
 624               	.LVL62:
 625 025c 00C0      		rjmp .L43
 626               	.LVL63:
 627               	.L44:
 628 025e 81E0      		ldi r24,lo8(1)
 629               	.LVL64:
 630               	.L43:
 631               	.LM84:
 632               	/* #APP */
 633               	 ;  1270 "../../Source/queue.c" 1
 634 0260 7894      		sei
 635               	 ;  0 "" 2
 636               	/* #NOAPP */
 637               	.L41:
 638               	.LVL65:
 639               	/* epilogue start */
 640               	.LM85:
 641 0262 DF91      		pop r29
 642 0264 CF91      		pop r28
 643               	.LVL66:
 644 0266 0895      		ret
 645               	.LFE17:
 647               	.global	vQueueDelete
 649               	vQueueDelete:
 650               	.LFB9:
 651               	.LM86:
 652               	.LVL67:
 653 0268 0F93      		push r16
 654 026a 1F93      		push r17
 655               	/* prologue: function */
 656               	/* frame size = 0 */
 657 026c 8C01      		movw r16,r24
 658               	.LM87:
 659 026e FC01      		movw r30,r24
 660 0270 8081      		ld r24,Z
 661 0272 9181      		ldd r25,Z+1
 662               	.LVL68:
 663 0274 0E94 0000 		call vPortFree
 664               	.LM88:
 665 0278 C801      		movw r24,r16
 666 027a 0E94 0000 		call vPortFree
 667               	/* epilogue start */
 668               	.LM89:
 669 027e 1F91      		pop r17
 670 0280 0F91      		pop r16
 671               	.LVL69:
 672 0282 0895      		ret
 673               	.LFE9:
 675               	.global	xQueueReceiveFromISR
 677               	xQueueReceiveFromISR:
 678               	.LFB6:
 679               	.LM90:
 680               	.LVL70:
 681 0284 0F93      		push r16
 682 0286 1F93      		push r17
 683 0288 CF93      		push r28
 684 028a DF93      		push r29
 685               	/* prologue: function */
 686               	/* frame size = 0 */
 687 028c EC01      		movw r28,r24
 688 028e FB01      		movw r30,r22
 689               	.LVL71:
 690 0290 8A01      		movw r16,r20
 691               	.LM91:
 692 0292 8A8D      		ldd r24,Y+26
 693               	.LVL72:
 694 0294 8823      		tst r24
 695 0296 01F0      		breq .L50
 696               	.LVL73:
 697               	.LBB14:
 698               	.LBB15:
 699               	.LM92:
 700 0298 4881      		ld r20,Y
 701 029a 5981      		ldd r21,Y+1
 702 029c 4115      		cp r20,__zero_reg__
 703 029e 5105      		cpc r21,__zero_reg__
 704 02a0 01F0      		breq .L51
 705               	.LM93:
 706 02a2 8C8D      		ldd r24,Y+28
 707 02a4 2E81      		ldd r18,Y+6
 708 02a6 3F81      		ldd r19,Y+7
 709 02a8 280F      		add r18,r24
 710 02aa 311D      		adc r19,__zero_reg__
 711 02ac 3F83      		std Y+7,r19
 712 02ae 2E83      		std Y+6,r18
 713               	.LM94:
 714 02b0 8A81      		ldd r24,Y+2
 715 02b2 9B81      		ldd r25,Y+3
 716 02b4 2817      		cp r18,r24
 717 02b6 3907      		cpc r19,r25
 718 02b8 00F0      		brlo .L52
 719               	.LM95:
 720 02ba 5F83      		std Y+7,r21
 721 02bc 4E83      		std Y+6,r20
 722               	.L52:
 723               	.LM96:
 724 02be 4C8D      		ldd r20,Y+28
 725 02c0 6E81      		ldd r22,Y+6
 726 02c2 7F81      		ldd r23,Y+7
 727 02c4 CF01      		movw r24,r30
 728 02c6 50E0      		ldi r21,lo8(0)
 729 02c8 0E94 0000 		call memcpy
 730               	.L51:
 731               	.LBE15:
 732               	.LBE14:
 733               	.LM97:
 734 02cc 8A8D      		ldd r24,Y+26
 735 02ce 8150      		subi r24,lo8(-(-1))
 736 02d0 8A8F      		std Y+26,r24
 737               	.LM98:
 738 02d2 8D8D      		ldd r24,Y+29
 739 02d4 8F3F      		cpi r24,lo8(-1)
 740 02d6 01F4      		brne .L54
 741               	.LM99:
 742 02d8 8885      		ldd r24,Y+8
 743 02da 8823      		tst r24
 744 02dc 01F0      		breq .L55
 745               	.LM100:
 746 02de CE01      		movw r24,r28
 747 02e0 0896      		adiw r24,8
 748 02e2 0E94 0000 		call xTaskRemoveFromEventList
 749 02e6 8823      		tst r24
 750 02e8 01F0      		breq .L55
 751               	.LM101:
 752 02ea 81E0      		ldi r24,lo8(1)
 753 02ec F801      		movw r30,r16
 754 02ee 8083      		st Z,r24
 755 02f0 00C0      		rjmp .L50
 756               	.L54:
 757               	.LM102:
 758 02f2 8F5F      		subi r24,lo8(-(1))
 759 02f4 8D8F      		std Y+29,r24
 760               	.L55:
 761 02f6 81E0      		ldi r24,lo8(1)
 762               	.LVL74:
 763               	.L50:
 764               	.LVL75:
 765               	/* epilogue start */
 766               	.LM103:
 767 02f8 DF91      		pop r29
 768 02fa CF91      		pop r28
 769               	.LVL76:
 770 02fc 1F91      		pop r17
 771 02fe 0F91      		pop r16
 772               	.LVL77:
 773 0300 0895      		ret
 774               	.LFE6:
 776               	.global	xQueueGenericSendFromISR
 778               	xQueueGenericSendFromISR:
 779               	.LFB4:
 780               	.LM104:
 781               	.LVL78:
 782 0302 0F93      		push r16
 783 0304 1F93      		push r17
 784 0306 CF93      		push r28
 785 0308 DF93      		push r29
 786               	/* prologue: function */
 787               	/* frame size = 0 */
 788 030a EC01      		movw r28,r24
 789 030c 8A01      		movw r16,r20
 790               	.LM105:
 791 030e 9A8D      		ldd r25,Y+26
 792 0310 8B8D      		ldd r24,Y+27
 793               	.LVL79:
 794 0312 9817      		cp r25,r24
 795 0314 00F0      		brlo .L58
 796               	.LVL80:
 797 0316 80E0      		ldi r24,lo8(0)
 798               	.LVL81:
 799 0318 00C0      		rjmp .L59
 800               	.LVL82:
 801               	.L58:
 802               	.LM106:
 803 031a CE01      		movw r24,r28
 804 031c 422F      		mov r20,r18
 805 031e 0E94 0000 		call prvCopyDataToQueue
 806               	.LVL83:
 807               	.LM107:
 808 0322 8E8D      		ldd r24,Y+30
 809 0324 8F3F      		cpi r24,lo8(-1)
 810 0326 01F4      		brne .L60
 811               	.LM108:
 812 0328 8989      		ldd r24,Y+17
 813 032a 8823      		tst r24
 814 032c 01F0      		breq .L61
 815               	.LM109:
 816 032e CE01      		movw r24,r28
 817 0330 4196      		adiw r24,17
 818 0332 0E94 0000 		call xTaskRemoveFromEventList
 819 0336 8823      		tst r24
 820 0338 01F0      		breq .L61
 821               	.LM110:
 822 033a 81E0      		ldi r24,lo8(1)
 823 033c F801      		movw r30,r16
 824 033e 8083      		st Z,r24
 825 0340 00C0      		rjmp .L59
 826               	.L60:
 827               	.LM111:
 828 0342 8F5F      		subi r24,lo8(-(1))
 829 0344 8E8F      		std Y+30,r24
 830               	.L61:
 831 0346 81E0      		ldi r24,lo8(1)
 832               	.LVL84:
 833               	.L59:
 834               	.LVL85:
 835               	/* epilogue start */
 836               	.LM112:
 837 0348 DF91      		pop r29
 838 034a CF91      		pop r28
 839               	.LVL86:
 840 034c 1F91      		pop r17
 841 034e 0F91      		pop r16
 842               	.LVL87:
 843 0350 0895      		ret
 844               	.LFE4:
 847               	prvUnlockQueue:
 848               	.LFB12:
 849               	.LM113:
 850               	.LVL88:
 851 0352 0F93      		push r16
 852 0354 1F93      		push r17
 853 0356 CF93      		push r28
 854 0358 DF93      		push r29
 855               	/* prologue: function */
 856               	/* frame size = 0 */
 857 035a EC01      		movw r28,r24
 858               	.LM114:
 859               	/* #APP */
 860               	 ;  1109 "../../Source/queue.c" 1
 861 035c 0FB6      		in		__tmp_reg__, __SREG__
 862               	 ;  0 "" 2
 863               	 ;  1109 "../../Source/queue.c" 1
 864 035e F894      		cli
 865               	 ;  0 "" 2
 866               	 ;  1109 "../../Source/queue.c" 1
 867 0360 0F92      		push	__tmp_reg__
 868               	 ;  0 "" 2
 869               	.LM115:
 870               	/* #NOAPP */
 871 0362 8C01      		movw r16,r24
 872 0364 0F5E      		subi r16,lo8(-(17))
 873 0366 1F4F      		sbci r17,hi8(-(17))
 874 0368 00C0      		rjmp .L64
 875               	.LVL89:
 876               	.L67:
 877               	.LM116:
 878 036a 8989      		ldd r24,Y+17
 879 036c 8823      		tst r24
 880 036e 01F0      		breq .L65
 881               	.LM117:
 882 0370 C801      		movw r24,r16
 883 0372 0E94 0000 		call xTaskRemoveFromEventList
 884 0376 8823      		tst r24
 885 0378 01F0      		breq .L66
 886               	.LM118:
 887 037a 0E94 0000 		call vTaskMissedYield
 888               	.L66:
 889               	.LM119:
 890 037e 8E8D      		ldd r24,Y+30
 891 0380 8150      		subi r24,lo8(-(-1))
 892 0382 8E8F      		std Y+30,r24
 893               	.LVL90:
 894               	.L64:
 895               	.LM120:
 896 0384 8E8D      		ldd r24,Y+30
 897 0386 1816      		cp __zero_reg__,r24
 898 0388 04F0      		brlt .L67
 899               	.L65:
 900               	.LM121:
 901 038a 8FEF      		ldi r24,lo8(-1)
 902 038c 8E8F      		std Y+30,r24
 903               	.LM122:
 904               	/* #APP */
 905               	 ;  1137 "../../Source/queue.c" 1
 906 038e 0F90      		pop		__tmp_reg__
 907               	 ;  0 "" 2
 908               	 ;  1137 "../../Source/queue.c" 1
 909 0390 0FBE      		out		__SREG__, __tmp_reg__
 910               	 ;  0 "" 2
 911               	.LM123:
 912               	 ;  1140 "../../Source/queue.c" 1
 913 0392 0FB6      		in		__tmp_reg__, __SREG__
 914               	 ;  0 "" 2
 915               	 ;  1140 "../../Source/queue.c" 1
 916 0394 F894      		cli
 917               	 ;  0 "" 2
 918               	 ;  1140 "../../Source/queue.c" 1
 919 0396 0F92      		push	__tmp_reg__
 920               	 ;  0 "" 2
 921               	.LM124:
 922               	/* #NOAPP */
 923 0398 8E01      		movw r16,r28
 924 039a 085F      		subi r16,lo8(-(8))
 925 039c 1F4F      		sbci r17,hi8(-(8))
 926 039e 00C0      		rjmp .L68
 927               	.L71:
 928               	.LM125:
 929 03a0 8885      		ldd r24,Y+8
 930 03a2 8823      		tst r24
 931 03a4 01F0      		breq .L69
 932               	.LM126:
 933 03a6 C801      		movw r24,r16
 934 03a8 0E94 0000 		call xTaskRemoveFromEventList
 935 03ac 8823      		tst r24
 936 03ae 01F0      		breq .L70
 937               	.LM127:
 938 03b0 0E94 0000 		call vTaskMissedYield
 939               	.L70:
 940               	.LM128:
 941 03b4 8D8D      		ldd r24,Y+29
 942 03b6 8150      		subi r24,lo8(-(-1))
 943 03b8 8D8F      		std Y+29,r24
 944               	.L68:
 945               	.LM129:
 946 03ba 8D8D      		ldd r24,Y+29
 947 03bc 1816      		cp __zero_reg__,r24
 948 03be 04F0      		brlt .L71
 949               	.L69:
 950               	.LM130:
 951 03c0 8FEF      		ldi r24,lo8(-1)
 952 03c2 8D8F      		std Y+29,r24
 953               	.LM131:
 954               	/* #APP */
 955               	 ;  1161 "../../Source/queue.c" 1
 956 03c4 0F90      		pop		__tmp_reg__
 957               	 ;  0 "" 2
 958               	 ;  1161 "../../Source/queue.c" 1
 959 03c6 0FBE      		out		__SREG__, __tmp_reg__
 960               	 ;  0 "" 2
 961               	/* epilogue start */
 962               	.LM132:
 963               	/* #NOAPP */
 964 03c8 DF91      		pop r29
 965 03ca CF91      		pop r28
 966               	.LVL91:
 967 03cc 1F91      		pop r17
 968 03ce 0F91      		pop r16
 969 03d0 0895      		ret
 970               	.LFE12:
 972               	.global	xQueueGenericReceive
 974               	xQueueGenericReceive:
 975               	.LFB5:
 976               	.LM133:
 977               	.LVL92:
 978 03d2 7F92      		push r7
 979 03d4 8F92      		push r8
 980 03d6 9F92      		push r9
 981 03d8 AF92      		push r10
 982 03da BF92      		push r11
 983 03dc CF92      		push r12
 984 03de DF92      		push r13
 985 03e0 EF92      		push r14
 986 03e2 FF92      		push r15
 987 03e4 0F93      		push r16
 988 03e6 1F93      		push r17
 989 03e8 DF93      		push r29
 990 03ea CF93      		push r28
 991 03ec 00D0      		rcall .
 992 03ee 00D0      		rcall .
 993 03f0 0F92      		push __tmp_reg__
 994 03f2 CDB7      		in r28,__SP_L__
 995 03f4 DEB7      		in r29,__SP_H__
 996               	/* prologue: function */
 997               	/* frame size = 5 */
 998 03f6 8C01      		movw r16,r24
 999 03f8 962E      		mov r9,r22
 1000 03fa 872E      		mov r8,r23
 1001               	.LVL93:
 1002 03fc 5D83      		std Y+5,r21
 1003 03fe 4C83      		std Y+4,r20
 1004 0400 722E      		mov r7,r18
 1005               	.LM134:
 1006 0402 91E1      		ldi r25,lo8(17)
 1007 0404 C92E      		mov r12,r25
 1008 0406 D12C      		mov r13,__zero_reg__
 1009 0408 C00E      		add r12,r16
 1010 040a D11E      		adc r13,r17
 1011 040c 20E0      		ldi r18,lo8(0)
 1012               	.LVL94:
 1013               	.LM135:
 1014 040e 7E01      		movw r14,r28
 1015 0410 0894      		sec
 1016 0412 E11C      		adc r14,__zero_reg__
 1017 0414 F11C      		adc r15,__zero_reg__
 1018               	.LM136:
 1019 0416 84E0      		ldi r24,lo8(4)
 1020 0418 A82E      		mov r10,r24
 1021 041a B12C      		mov r11,__zero_reg__
 1022               	.LVL95:
 1023 041c AC0E      		add r10,r28
 1024 041e BD1E      		adc r11,r29
 1025 0420 00C0      		rjmp .L74
 1026               	.LVL96:
 1027               	.L88:
 1028               	.LM137:
 1029 0422 21E0      		ldi r18,lo8(1)
 1030               	.LVL97:
 1031               	.L74:
 1032               	.LM138:
 1033               	/* #APP */
 1034               	 ;  832 "../../Source/queue.c" 1
 1035 0424 0FB6      		in		__tmp_reg__, __SREG__
 1036               	 ;  0 "" 2
 1037               	 ;  832 "../../Source/queue.c" 1
 1038 0426 F894      		cli
 1039               	 ;  0 "" 2
 1040               	 ;  832 "../../Source/queue.c" 1
 1041 0428 0F92      		push	__tmp_reg__
 1042               	 ;  0 "" 2
 1043               	.LM139:
 1044               	/* #NOAPP */
 1045 042a F801      		movw r30,r16
 1046 042c 828D      		ldd r24,Z+26
 1047 042e 8823      		tst r24
 1048 0430 01F4      		brne .+2
 1049 0432 00C0      		rjmp .L75
 1050               	.LM140:
 1051 0434 E680      		ldd r14,Z+6
 1052 0436 F780      		ldd r15,Z+7
 1053               	.LVL98:
 1054               	.LBB16:
 1055               	.LBB17:
 1056               	.LM141:
 1057 0438 4081      		ld r20,Z
 1058 043a 5181      		ldd r21,Z+1
 1059 043c 4115      		cp r20,__zero_reg__
 1060 043e 5105      		cpc r21,__zero_reg__
 1061 0440 01F0      		breq .L76
 1062               	.LM142:
 1063 0442 848D      		ldd r24,Z+28
 1064 0444 9701      		movw r18,r14
 1065               	.LVL99:
 1066 0446 280F      		add r18,r24
 1067 0448 311D      		adc r19,__zero_reg__
 1068 044a 3783      		std Z+7,r19
 1069 044c 2683      		std Z+6,r18
 1070               	.LM143:
 1071 044e 8281      		ldd r24,Z+2
 1072 0450 9381      		ldd r25,Z+3
 1073 0452 2817      		cp r18,r24
 1074 0454 3907      		cpc r19,r25
 1075 0456 00F0      		brlo .L77
 1076               	.LM144:
 1077 0458 5783      		std Z+7,r21
 1078 045a 4683      		std Z+6,r20
 1079               	.L77:
 1080               	.LM145:
 1081 045c F801      		movw r30,r16
 1082 045e 448D      		ldd r20,Z+28
 1083 0460 6681      		ldd r22,Z+6
 1084 0462 7781      		ldd r23,Z+7
 1085 0464 892D      		mov r24,r9
 1086 0466 982D      		mov r25,r8
 1087 0468 50E0      		ldi r21,lo8(0)
 1088 046a 0E94 0000 		call memcpy
 1089               	.LVL100:
 1090               	.L76:
 1091               	.LBE17:
 1092               	.LBE16:
 1093               	.LM146:
 1094 046e 7720      		tst r7
 1095 0470 01F4      		brne .L79
 1096               	.LM147:
 1097 0472 F801      		movw r30,r16
 1098 0474 828D      		ldd r24,Z+26
 1099 0476 8150      		subi r24,lo8(-(-1))
 1100 0478 828F      		std Z+26,r24
 1101               	.LM148:
 1102 047a 8085      		ldd r24,Z+8
 1103 047c 8823      		tst r24
 1104 047e 01F0      		breq .L80
 1105               	.LM149:
 1106 0480 C801      		movw r24,r16
 1107 0482 0896      		adiw r24,8
 1108 0484 0E94 0000 		call xTaskRemoveFromEventList
 1109               	.LVL101:
 1110 0488 8130      		cpi r24,lo8(1)
 1111 048a 01F4      		brne .L80
 1112 048c 00C0      		rjmp .L90
 1113               	.LVL102:
 1114               	.L79:
 1115               	.LM150:
 1116 048e F801      		movw r30,r16
 1117 0490 F782      		std Z+7,r15
 1118 0492 E682      		std Z+6,r14
 1119               	.LM151:
 1120 0494 8189      		ldd r24,Z+17
 1121 0496 8823      		tst r24
 1122 0498 01F0      		breq .L80
 1123               	.LM152:
 1124 049a C601      		movw r24,r12
 1125 049c 0E94 0000 		call xTaskRemoveFromEventList
 1126               	.LVL103:
 1127 04a0 8823      		tst r24
 1128 04a2 01F0      		breq .L80
 1129               	.L90:
 1130               	.LM153:
 1131 04a4 0E94 0000 		call vPortYield
 1132               	.LVL104:
 1133               	.L80:
 1134               	.LM154:
 1135               	/* #APP */
 1136               	 ;  892 "../../Source/queue.c" 1
 1137 04a8 0F90      		pop		__tmp_reg__
 1138               	 ;  0 "" 2
 1139               	 ;  892 "../../Source/queue.c" 1
 1140 04aa 0FBE      		out		__SREG__, __tmp_reg__
 1141               	 ;  0 "" 2
 1142               	/* #NOAPP */
 1143 04ac 81E0      		ldi r24,lo8(1)
 1144 04ae 00C0      		rjmp .L81
 1145               	.LVL105:
 1146               	.L75:
 1147               	.LM155:
 1148 04b0 8C81      		ldd r24,Y+4
 1149 04b2 9D81      		ldd r25,Y+5
 1150 04b4 892B      		or r24,r25
 1151 04b6 01F4      		brne .L82
 1152               	.LVL106:
 1153               	.LM156:
 1154               	/* #APP */
 1155               	 ;  901 "../../Source/queue.c" 1
 1156 04b8 0F90      		pop		__tmp_reg__
 1157               	 ;  0 "" 2
 1158               	 ;  901 "../../Source/queue.c" 1
 1159 04ba 0FBE      		out		__SREG__, __tmp_reg__
 1160               	 ;  0 "" 2
 1161               	/* #NOAPP */
 1162 04bc 00C0      		rjmp .L91
 1163               	.L82:
 1164               	.LM157:
 1165 04be 2223      		tst r18
 1166 04c0 01F4      		brne .L83
 1167               	.LM158:
 1168 04c2 C701      		movw r24,r14
 1169               	.LVL107:
 1170 04c4 0E94 0000 		call vTaskSetTimeOutState
 1171               	.LVL108:
 1172               	.L83:
 1173               	.LM159:
 1174               	/* #APP */
 1175               	 ;  914 "../../Source/queue.c" 1
 1176 04c8 0F90      		pop		__tmp_reg__
 1177               	 ;  0 "" 2
 1178               	 ;  914 "../../Source/queue.c" 1
 1179 04ca 0FBE      		out		__SREG__, __tmp_reg__
 1180               	 ;  0 "" 2
 1181               	.LM160:
 1182               	/* #NOAPP */
 1183 04cc 0E94 0000 		call vTaskSuspendAll
 1184               	.LVL109:
 1185               	.LM161:
 1186               	/* #APP */
 1187               	 ;  920 "../../Source/queue.c" 1
 1188 04d0 0FB6      		in		__tmp_reg__, __SREG__
 1189               	 ;  0 "" 2
 1190               	 ;  920 "../../Source/queue.c" 1
 1191 04d2 F894      		cli
 1192               	 ;  0 "" 2
 1193               	 ;  920 "../../Source/queue.c" 1
 1194 04d4 0F92      		push	__tmp_reg__
 1195               	 ;  0 "" 2
 1196               	/* #NOAPP */
 1197 04d6 F801      		movw r30,r16
 1198 04d8 858D      		ldd r24,Z+29
 1199 04da 8F3F      		cpi r24,lo8(-1)
 1200 04dc 01F4      		brne .L84
 1201 04de 158E      		std Z+29,__zero_reg__
 1202               	.L84:
 1203 04e0 F801      		movw r30,r16
 1204 04e2 868D      		ldd r24,Z+30
 1205 04e4 8F3F      		cpi r24,lo8(-1)
 1206 04e6 01F4      		brne .L85
 1207 04e8 168E      		std Z+30,__zero_reg__
 1208               	.L85:
 1209               	/* #APP */
 1210               	 ;  920 "../../Source/queue.c" 1
 1211 04ea 0F90      		pop		__tmp_reg__
 1212               	 ;  0 "" 2
 1213               	 ;  920 "../../Source/queue.c" 1
 1214 04ec 0FBE      		out		__SREG__, __tmp_reg__
 1215               	 ;  0 "" 2
 1216               	.LM162:
 1217               	/* #NOAPP */
 1218 04ee C701      		movw r24,r14
 1219 04f0 B501      		movw r22,r10
 1220 04f2 0E94 0000 		call xTaskCheckForTimeOut
 1221 04f6 8823      		tst r24
 1222 04f8 01F4      		brne .L86
 1223               	.LBB18:
 1224               	.LBB19:
 1225               	.LM163:
 1226               	/* #APP */
 1227               	 ;  1169 "../../Source/queue.c" 1
 1228 04fa 0FB6      		in		__tmp_reg__, __SREG__
 1229               	 ;  0 "" 2
 1230               	 ;  1169 "../../Source/queue.c" 1
 1231 04fc F894      		cli
 1232               	 ;  0 "" 2
 1233               	 ;  1169 "../../Source/queue.c" 1
 1234 04fe 0F92      		push	__tmp_reg__
 1235               	 ;  0 "" 2
 1236               	.LM164:
 1237               	/* #NOAPP */
 1238 0500 F801      		movw r30,r16
 1239 0502 828D      		ldd r24,Z+26
 1240               	.LM165:
 1241               	/* #APP */
 1242               	 ;  1171 "../../Source/queue.c" 1
 1243 0504 0F90      		pop		__tmp_reg__
 1244               	 ;  0 "" 2
 1245               	 ;  1171 "../../Source/queue.c" 1
 1246 0506 0FBE      		out		__SREG__, __tmp_reg__
 1247               	 ;  0 "" 2
 1248               	/* #NOAPP */
 1249               	.LBE19:
 1250               	.LBE18:
 1251               	.LM166:
 1252 0508 8823      		tst r24
 1253 050a 01F4      		brne .L87
 1254               	.LM167:
 1255 050c 6C81      		ldd r22,Y+4
 1256 050e 7D81      		ldd r23,Y+5
 1257 0510 C601      		movw r24,r12
 1258 0512 0E94 0000 		call vTaskPlaceOnEventList
 1259               	.LM168:
 1260 0516 C801      		movw r24,r16
 1261 0518 0E94 0000 		call prvUnlockQueue
 1262               	.LM169:
 1263 051c 0E94 0000 		call xTaskResumeAll
 1264 0520 8823      		tst r24
 1265 0522 01F0      		breq .+2
 1266 0524 00C0      		rjmp .L88
 1267               	.LM170:
 1268 0526 0E94 0000 		call vPortYield
 1269 052a 00C0      		rjmp .L88
 1270               	.L87:
 1271               	.LM171:
 1272 052c C801      		movw r24,r16
 1273 052e 0E94 0000 		call prvUnlockQueue
 1274               	.LM172:
 1275 0532 0E94 0000 		call xTaskResumeAll
 1276 0536 00C0      		rjmp .L88
 1277               	.L86:
 1278               	.LM173:
 1279 0538 C801      		movw r24,r16
 1280 053a 0E94 0000 		call prvUnlockQueue
 1281               	.LM174:
 1282 053e 0E94 0000 		call xTaskResumeAll
 1283               	.LVL110:
 1284               	.L91:
 1285 0542 80E0      		ldi r24,lo8(0)
 1286               	.LVL111:
 1287               	.L81:
 1288               	/* epilogue start */
 1289               	.LM175:
 1290 0544 0F90      		pop __tmp_reg__
 1291 0546 0F90      		pop __tmp_reg__
 1292 0548 0F90      		pop __tmp_reg__
 1293 054a 0F90      		pop __tmp_reg__
 1294 054c 0F90      		pop __tmp_reg__
 1295 054e CF91      		pop r28
 1296 0550 DF91      		pop r29
 1297 0552 1F91      		pop r17
 1298 0554 0F91      		pop r16
 1299               	.LVL112:
 1300 0556 FF90      		pop r15
 1301 0558 EF90      		pop r14
 1302               	.LVL113:
 1303 055a DF90      		pop r13
 1304 055c CF90      		pop r12
 1305 055e BF90      		pop r11
 1306 0560 AF90      		pop r10
 1307 0562 9F90      		pop r9
 1308               	.LVL114:
 1309 0564 8F90      		pop r8
 1310               	.LVL115:
 1311 0566 7F90      		pop r7
 1312               	.LVL116:
 1313 0568 0895      		ret
 1314               	.LFE5:
 1316               	.global	xQueueGenericSend
 1318               	xQueueGenericSend:
 1319               	.LFB3:
 1320               	.LM176:
 1321               	.LVL117:
 1322 056a 7F92      		push r7
 1323 056c 8F92      		push r8
 1324 056e 9F92      		push r9
 1325 0570 AF92      		push r10
 1326 0572 BF92      		push r11
 1327 0574 CF92      		push r12
 1328 0576 DF92      		push r13
 1329 0578 EF92      		push r14
 1330 057a FF92      		push r15
 1331 057c 0F93      		push r16
 1332 057e 1F93      		push r17
 1333 0580 DF93      		push r29
 1334 0582 CF93      		push r28
 1335 0584 00D0      		rcall .
 1336 0586 00D0      		rcall .
 1337 0588 0F92      		push __tmp_reg__
 1338 058a CDB7      		in r28,__SP_L__
 1339 058c DEB7      		in r29,__SP_H__
 1340               	/* prologue: function */
 1341               	/* frame size = 5 */
 1342 058e 8C01      		movw r16,r24
 1343 0590 6B01      		movw r12,r22
 1344 0592 5D83      		std Y+5,r21
 1345 0594 4C83      		std Y+4,r20
 1346 0596 722E      		mov r7,r18
 1347               	.LM177:
 1348 0598 48E0      		ldi r20,lo8(8)
 1349 059a E42E      		mov r14,r20
 1350 059c F12C      		mov r15,__zero_reg__
 1351               	.LVL118:
 1352 059e E80E      		add r14,r24
 1353 05a0 F91E      		adc r15,r25
 1354 05a2 20E0      		ldi r18,lo8(0)
 1355               	.LVL119:
 1356               	.LM178:
 1357 05a4 5E01      		movw r10,r28
 1358 05a6 0894      		sec
 1359 05a8 A11C      		adc r10,__zero_reg__
 1360 05aa B11C      		adc r11,__zero_reg__
 1361               	.LM179:
 1362 05ac 34E0      		ldi r19,lo8(4)
 1363 05ae 832E      		mov r8,r19
 1364 05b0 912C      		mov r9,__zero_reg__
 1365 05b2 8C0E      		add r8,r28
 1366 05b4 9D1E      		adc r9,r29
 1367 05b6 00C0      		rjmp .L93
 1368               	.LVL120:
 1369               	.L103:
 1370               	.LM180:
 1371 05b8 21E0      		ldi r18,lo8(1)
 1372               	.LVL121:
 1373               	.L93:
 1374               	.LM181:
 1375               	/* #APP */
 1376               	 ;  461 "../../Source/queue.c" 1
 1377 05ba 0FB6      		in		__tmp_reg__, __SREG__
 1378               	 ;  0 "" 2
 1379               	 ;  461 "../../Source/queue.c" 1
 1380 05bc F894      		cli
 1381               	 ;  0 "" 2
 1382               	 ;  461 "../../Source/queue.c" 1
 1383 05be 0F92      		push	__tmp_reg__
 1384               	 ;  0 "" 2
 1385               	.LM182:
 1386               	/* #NOAPP */
 1387 05c0 F801      		movw r30,r16
 1388 05c2 928D      		ldd r25,Z+26
 1389 05c4 838D      		ldd r24,Z+27
 1390 05c6 9817      		cp r25,r24
 1391 05c8 00F4      		brsh .L94
 1392               	.LM183:
 1393 05ca C801      		movw r24,r16
 1394 05cc B601      		movw r22,r12
 1395 05ce 472D      		mov r20,r7
 1396 05d0 0E94 0000 		call prvCopyDataToQueue
 1397               	.LVL122:
 1398               	.LM184:
 1399 05d4 F801      		movw r30,r16
 1400 05d6 8189      		ldd r24,Z+17
 1401 05d8 8823      		tst r24
 1402 05da 01F0      		breq .L95
 1403               	.LM185:
 1404 05dc C801      		movw r24,r16
 1405 05de 4196      		adiw r24,17
 1406 05e0 0E94 0000 		call xTaskRemoveFromEventList
 1407 05e4 8130      		cpi r24,lo8(1)
 1408 05e6 01F4      		brne .L95
 1409               	.LM186:
 1410 05e8 0E94 0000 		call vPortYield
 1411               	.L95:
 1412               	.LM187:
 1413               	/* #APP */
 1414               	 ;  484 "../../Source/queue.c" 1
 1415 05ec 0F90      		pop		__tmp_reg__
 1416               	 ;  0 "" 2
 1417               	 ;  484 "../../Source/queue.c" 1
 1418 05ee 0FBE      		out		__SREG__, __tmp_reg__
 1419               	 ;  0 "" 2
 1420               	/* #NOAPP */
 1421 05f0 81E0      		ldi r24,lo8(1)
 1422 05f2 00C0      		rjmp .L96
 1423               	.LVL123:
 1424               	.L94:
 1425               	.LM188:
 1426 05f4 8C81      		ldd r24,Y+4
 1427 05f6 9D81      		ldd r25,Y+5
 1428 05f8 892B      		or r24,r25
 1429 05fa 01F4      		brne .L97
 1430               	.LVL124:
 1431               	.LM189:
 1432               	/* #APP */
 1433               	 ;  496 "../../Source/queue.c" 1
 1434 05fc 0F90      		pop		__tmp_reg__
 1435               	 ;  0 "" 2
 1436               	 ;  496 "../../Source/queue.c" 1
 1437 05fe 0FBE      		out		__SREG__, __tmp_reg__
 1438               	 ;  0 "" 2
 1439               	/* #NOAPP */
 1440 0600 00C0      		rjmp .L105
 1441               	.L97:
 1442               	.LM190:
 1443 0602 2223      		tst r18
 1444 0604 01F4      		brne .L98
 1445               	.LM191:
 1446 0606 C501      		movw r24,r10
 1447               	.LVL125:
 1448 0608 0E94 0000 		call vTaskSetTimeOutState
 1449               	.LVL126:
 1450               	.L98:
 1451               	.LM192:
 1452               	/* #APP */
 1453               	 ;  512 "../../Source/queue.c" 1
 1454 060c 0F90      		pop		__tmp_reg__
 1455               	 ;  0 "" 2
 1456               	 ;  512 "../../Source/queue.c" 1
 1457 060e 0FBE      		out		__SREG__, __tmp_reg__
 1458               	 ;  0 "" 2
 1459               	.LM193:
 1460               	/* #NOAPP */
 1461 0610 0E94 0000 		call vTaskSuspendAll
 1462               	.LVL127:
 1463               	.LM194:
 1464               	/* #APP */
 1465               	 ;  518 "../../Source/queue.c" 1
 1466 0614 0FB6      		in		__tmp_reg__, __SREG__
 1467               	 ;  0 "" 2
 1468               	 ;  518 "../../Source/queue.c" 1
 1469 0616 F894      		cli
 1470               	 ;  0 "" 2
 1471               	 ;  518 "../../Source/queue.c" 1
 1472 0618 0F92      		push	__tmp_reg__
 1473               	 ;  0 "" 2
 1474               	/* #NOAPP */
 1475 061a F801      		movw r30,r16
 1476 061c 858D      		ldd r24,Z+29
 1477 061e 8F3F      		cpi r24,lo8(-1)
 1478 0620 01F4      		brne .L99
 1479 0622 158E      		std Z+29,__zero_reg__
 1480               	.L99:
 1481 0624 F801      		movw r30,r16
 1482 0626 868D      		ldd r24,Z+30
 1483 0628 8F3F      		cpi r24,lo8(-1)
 1484 062a 01F4      		brne .L100
 1485 062c 168E      		std Z+30,__zero_reg__
 1486               	.L100:
 1487               	/* #APP */
 1488               	 ;  518 "../../Source/queue.c" 1
 1489 062e 0F90      		pop		__tmp_reg__
 1490               	 ;  0 "" 2
 1491               	 ;  518 "../../Source/queue.c" 1
 1492 0630 0FBE      		out		__SREG__, __tmp_reg__
 1493               	 ;  0 "" 2
 1494               	.LM195:
 1495               	/* #NOAPP */
 1496 0632 C501      		movw r24,r10
 1497 0634 B401      		movw r22,r8
 1498 0636 0E94 0000 		call xTaskCheckForTimeOut
 1499 063a 8823      		tst r24
 1500 063c 01F4      		brne .L101
 1501               	.LBB20:
 1502               	.LBB21:
 1503               	.LM196:
 1504               	/* #APP */
 1505               	 ;  1191 "../../Source/queue.c" 1
 1506 063e 0FB6      		in		__tmp_reg__, __SREG__
 1507               	 ;  0 "" 2
 1508               	 ;  1191 "../../Source/queue.c" 1
 1509 0640 F894      		cli
 1510               	 ;  0 "" 2
 1511               	 ;  1191 "../../Source/queue.c" 1
 1512 0642 0F92      		push	__tmp_reg__
 1513               	 ;  0 "" 2
 1514               	.LM197:
 1515               	/* #NOAPP */
 1516 0644 F801      		movw r30,r16
 1517 0646 928D      		ldd r25,Z+26
 1518               	.LM198:
 1519               	/* #APP */
 1520               	 ;  1193 "../../Source/queue.c" 1
 1521 0648 0F90      		pop		__tmp_reg__
 1522               	 ;  0 "" 2
 1523               	 ;  1193 "../../Source/queue.c" 1
 1524 064a 0FBE      		out		__SREG__, __tmp_reg__
 1525               	 ;  0 "" 2
 1526               	/* #NOAPP */
 1527               	.LBE21:
 1528               	.LBE20:
 1529               	.LM199:
 1530 064c F801      		movw r30,r16
 1531 064e 838D      		ldd r24,Z+27
 1532 0650 9817      		cp r25,r24
 1533 0652 01F4      		brne .L102
 1534               	.LM200:
 1535 0654 6C81      		ldd r22,Y+4
 1536 0656 7D81      		ldd r23,Y+5
 1537 0658 C701      		movw r24,r14
 1538 065a 0E94 0000 		call vTaskPlaceOnEventList
 1539               	.LM201:
 1540 065e C801      		movw r24,r16
 1541 0660 0E94 0000 		call prvUnlockQueue
 1542               	.LM202:
 1543 0664 0E94 0000 		call xTaskResumeAll
 1544 0668 8823      		tst r24
 1545 066a 01F0      		breq .+2
 1546 066c 00C0      		rjmp .L103
 1547               	.LM203:
 1548 066e 0E94 0000 		call vPortYield
 1549 0672 00C0      		rjmp .L103
 1550               	.L102:
 1551               	.LM204:
 1552 0674 C801      		movw r24,r16
 1553 0676 0E94 0000 		call prvUnlockQueue
 1554               	.LM205:
 1555 067a 0E94 0000 		call xTaskResumeAll
 1556 067e 00C0      		rjmp .L103
 1557               	.L101:
 1558               	.LM206:
 1559 0680 C801      		movw r24,r16
 1560 0682 0E94 0000 		call prvUnlockQueue
 1561               	.LM207:
 1562 0686 0E94 0000 		call xTaskResumeAll
 1563               	.LVL128:
 1564               	.L105:
 1565 068a 80E0      		ldi r24,lo8(0)
 1566               	.L96:
 1567               	/* epilogue start */
 1568               	.LM208:
 1569 068c 0F90      		pop __tmp_reg__
 1570 068e 0F90      		pop __tmp_reg__
 1571 0690 0F90      		pop __tmp_reg__
 1572 0692 0F90      		pop __tmp_reg__
 1573 0694 0F90      		pop __tmp_reg__
 1574 0696 CF91      		pop r28
 1575 0698 DF91      		pop r29
 1576 069a 1F91      		pop r17
 1577 069c 0F91      		pop r16
 1578               	.LVL129:
 1579 069e FF90      		pop r15
 1580 06a0 EF90      		pop r14
 1581 06a2 DF90      		pop r13
 1582 06a4 CF90      		pop r12
 1583               	.LVL130:
 1584 06a6 BF90      		pop r11
 1585 06a8 AF90      		pop r10
 1586 06aa 9F90      		pop r9
 1587 06ac 8F90      		pop r8
 1588 06ae 7F90      		pop r7
 1589               	.LVL131:
 1590 06b0 0895      		ret
 1591               	.LFE3:
 1593               	.global	xQueueCreate
 1595               	xQueueCreate:
 1596               	.LFB2:
 1597               	.LM209:
 1598               	.LVL132:
 1599 06b2 8F92      		push r8
 1600 06b4 9F92      		push r9
 1601 06b6 AF92      		push r10
 1602 06b8 BF92      		push r11
 1603 06ba CF92      		push r12
 1604 06bc DF92      		push r13
 1605 06be EF92      		push r14
 1606 06c0 FF92      		push r15
 1607 06c2 0F93      		push r16
 1608 06c4 1F93      		push r17
 1609 06c6 CF93      		push r28
 1610 06c8 DF93      		push r29
 1611               	/* prologue: function */
 1612               	/* frame size = 0 */
 1613 06ca 982E      		mov r9,r24
 1614 06cc 862E      		mov r8,r22
 1615               	.LM210:
 1616 06ce 8823      		tst r24
 1617 06d0 01F4      		brne .+2
 1618 06d2 00C0      		rjmp .L111
 1619               	.LVL133:
 1620               	.L107:
 1621               	.LM211:
 1622 06d4 8FE1      		ldi r24,lo8(31)
 1623 06d6 90E0      		ldi r25,hi8(31)
 1624               	.LVL134:
 1625 06d8 0E94 0000 		call pvPortMalloc
 1626 06dc 8C01      		movw r16,r24
 1627 06de EC01      		movw r28,r24
 1628               	.LVL135:
 1629               	.LM212:
 1630 06e0 0097      		sbiw r24,0
 1631 06e2 01F0      		breq .L108
 1632               	.LM213:
 1633 06e4 C92C      		mov r12,r9
 1634 06e6 DD24      		clr r13
 1635 06e8 A82C      		mov r10,r8
 1636 06ea BB24      		clr r11
 1637 06ec AC9C      		mul r10,r12
 1638 06ee 7001      		movw r14,r0
 1639 06f0 AD9C      		mul r10,r13
 1640 06f2 F00C      		add r15,r0
 1641 06f4 BC9C      		mul r11,r12
 1642 06f6 F00C      		add r15,r0
 1643 06f8 1124      		clr r1
 1644               	.LM214:
 1645 06fa C701      		movw r24,r14
 1646               	.LVL136:
 1647 06fc 0196      		adiw r24,1
 1648 06fe 0E94 0000 		call pvPortMalloc
 1649 0702 9C01      		movw r18,r24
 1650 0704 9983      		std Y+1,r25
 1651 0706 8883      		st Y,r24
 1652               	.LM215:
 1653 0708 0097      		sbiw r24,0
 1654 070a 01F0      		breq .L109
 1655               	.LM216:
 1656 070c E80E      		add r14,r24
 1657 070e F91E      		adc r15,r25
 1658 0710 FB82      		std Y+3,r15
 1659 0712 EA82      		std Y+2,r14
 1660               	.LM217:
 1661 0714 1A8E      		std Y+26,__zero_reg__
 1662               	.LM218:
 1663 0716 9D83      		std Y+5,r25
 1664 0718 8C83      		std Y+4,r24
 1665               	.LM219:
 1666 071a 0894      		sec
 1667 071c C108      		sbc r12,__zero_reg__
 1668 071e D108      		sbc r13,__zero_reg__
 1669 0720 CA9C      		mul r12,r10
 1670 0722 C001      		movw r24,r0
 1671 0724 CB9C      		mul r12,r11
 1672 0726 900D      		add r25,r0
 1673 0728 DA9C      		mul r13,r10
 1674 072a 900D      		add r25,r0
 1675 072c 1124      		clr r1
 1676 072e 280F      		add r18,r24
 1677 0730 391F      		adc r19,r25
 1678 0732 3F83      		std Y+7,r19
 1679 0734 2E83      		std Y+6,r18
 1680               	.LM220:
 1681 0736 9B8E      		std Y+27,r9
 1682               	.LM221:
 1683 0738 8C8E      		std Y+28,r8
 1684               	.LM222:
 1685 073a 8FEF      		ldi r24,lo8(-1)
 1686 073c 8D8F      		std Y+29,r24
 1687               	.LM223:
 1688 073e 8E8F      		std Y+30,r24
 1689               	.LM224:
 1690 0740 C801      		movw r24,r16
 1691 0742 0896      		adiw r24,8
 1692 0744 0E94 0000 		call vListInitialise
 1693               	.LM225:
 1694 0748 C801      		movw r24,r16
 1695 074a 4196      		adiw r24,17
 1696 074c 0E94 0000 		call vListInitialise
 1697 0750 00C0      		rjmp .L108
 1698               	.LVL137:
 1699               	.L109:
 1700               	.LM226:
 1701 0752 C801      		movw r24,r16
 1702 0754 0E94 0000 		call vPortFree
 1703               	.LVL138:
 1704               	.L111:
 1705 0758 C0E0      		ldi r28,lo8(0)
 1706 075a D0E0      		ldi r29,hi8(0)
 1707               	.LVL139:
 1708               	.L108:
 1709               	.LM227:
 1710 075c CE01      		movw r24,r28
 1711               	.LVL140:
 1712               	/* epilogue start */
 1713 075e DF91      		pop r29
 1714 0760 CF91      		pop r28
 1715 0762 1F91      		pop r17
 1716 0764 0F91      		pop r16
 1717               	.LVL141:
 1718 0766 FF90      		pop r15
 1719 0768 EF90      		pop r14
 1720 076a DF90      		pop r13
 1721 076c CF90      		pop r12
 1722 076e BF90      		pop r11
 1723 0770 AF90      		pop r10
 1724 0772 9F90      		pop r9
 1725               	.LVL142:
 1726 0774 8F90      		pop r8
 1727               	.LVL143:
 1728 0776 0895      		ret
 1729               	.LFE2:
 1875               	.Letext0:
DEFINED SYMBOLS
                            *ABS*:00000000 queue.c
C:\Users\Owner\AppData\Local\Temp/ccC5QRAd.s:2      *ABS*:0000003f __SREG__
C:\Users\Owner\AppData\Local\Temp/ccC5QRAd.s:3      *ABS*:0000003e __SP_H__
C:\Users\Owner\AppData\Local\Temp/ccC5QRAd.s:4      *ABS*:0000003d __SP_L__
C:\Users\Owner\AppData\Local\Temp/ccC5QRAd.s:5      *ABS*:00000034 __CCP__
C:\Users\Owner\AppData\Local\Temp/ccC5QRAd.s:6      *ABS*:00000000 __tmp_reg__
C:\Users\Owner\AppData\Local\Temp/ccC5QRAd.s:7      *ABS*:00000001 __zero_reg__
C:\Users\Owner\AppData\Local\Temp/ccC5QRAd.s:20     .text:00000000 uxQueueMessagesWaiting
C:\Users\Owner\AppData\Local\Temp/ccC5QRAd.s:59     .text:00000010 uxQueueMessagesWaitingFromISR
C:\Users\Owner\AppData\Local\Temp/ccC5QRAd.s:77     .text:00000016 xQueueIsQueueEmptyFromISR
C:\Users\Owner\AppData\Local\Temp/ccC5QRAd.s:100    .text:00000026 xQueueIsQueueFullFromISR
C:\Users\Owner\AppData\Local\Temp/ccC5QRAd.s:123    .text:00000038 prvCopyDataToQueue
C:\Users\Owner\AppData\Local\Temp/ccC5QRAd.s:221    .text:000000ba xQueueCRReceiveFromISR
C:\Users\Owner\AppData\Local\Temp/ccC5QRAd.s:310    .text:00000130 xQueueCRSendFromISR
C:\Users\Owner\AppData\Local\Temp/ccC5QRAd.s:364    .text:0000016e xQueueCRReceive
C:\Users\Owner\AppData\Local\Temp/ccC5QRAd.s:504    .text:000001fa xQueueCRSend
C:\Users\Owner\AppData\Local\Temp/ccC5QRAd.s:649    .text:00000268 vQueueDelete
C:\Users\Owner\AppData\Local\Temp/ccC5QRAd.s:677    .text:00000284 xQueueReceiveFromISR
C:\Users\Owner\AppData\Local\Temp/ccC5QRAd.s:778    .text:00000302 xQueueGenericSendFromISR
C:\Users\Owner\AppData\Local\Temp/ccC5QRAd.s:847    .text:00000352 prvUnlockQueue
C:\Users\Owner\AppData\Local\Temp/ccC5QRAd.s:974    .text:000003d2 xQueueGenericReceive
C:\Users\Owner\AppData\Local\Temp/ccC5QRAd.s:1318   .text:0000056a xQueueGenericSend
C:\Users\Owner\AppData\Local\Temp/ccC5QRAd.s:1595   .text:000006b2 xQueueCreate

UNDEFINED SYMBOLS
__do_copy_data
__do_clear_bss
memcpy
xCoRoutineRemoveFromEventList
vCoRoutineAddToDelayedList
vPortFree
xTaskRemoveFromEventList
vTaskMissedYield
vPortYield
vTaskSetTimeOutState
vTaskSuspendAll
xTaskCheckForTimeOut
vTaskPlaceOnEventList
xTaskResumeAll
pvPortMalloc
vListInitialise
